; Function Attrs: mustprogress ssp uwtable
define dso_local void @_Z25PrintVoxelGridInformationRKN6open3d8geometry9VoxelGridE(ptr noundef nonnull align 8 dereferenceable(136) %0) local_unnamed_addr #4 personality ptr @__gxx_personality_v0 {
  %2 = alloca i64, align 8
  call void @llvm.lifetime.start.p0(i64 8, ptr nonnull %2) #31
  %3 = getelementptr inbounds nuw i8, ptr %0, i64 104
  %4 = load i64, ptr %3, align 8, !tbaa !21
  store i64 %4, ptr %2, align 8, !tbaa !23
  call void @_ZN6open3d7utility6Logger8LogInfo_IJmEEEvPKciS4_S4_DpOT_(ptr noundef nonnull @.str, i32 noundef 14, ptr noundef nonnull @__PRETTY_FUNCTION__._Z25PrintVoxelGridInformationRKN6open3d8geometry9VoxelGridE, ptr noundef nonnull @.str.6, ptr noundef nonnull align 8 dereferenceable(8) %2)
  call void @llvm.lifetime.end.p0(i64 8, ptr nonnull %2) #31
  %5 = getelementptr inbounds nuw i8, ptr %0, i64 56
  %6 = getelementptr inbounds nuw i8, ptr %0, i64 64
  %7 = getelementptr inbounds nuw i8, ptr %0, i64 72
  call void @_ZN6open3d7utility6Logger8LogInfo_IJRKdS4_S4_EEEvPKciS6_S6_DpOT_(ptr noundef nonnull @.str, i32 noundef 17, ptr noundef nonnull @__PRETTY_FUNCTION__._Z25PrintVoxelGridInformationRKN6open3d8geometry9VoxelGridE, ptr noundef nonnull @.str.7, ptr noundef nonnull align 8 dereferenceable(8) %5, ptr noundef nonnull align 8 dereferenceable(8) %6, ptr noundef nonnull align 8 dereferenceable(8) %7)
  %8 = getelementptr inbounds nuw i8, ptr %0, i64 48
  call void @_ZN6open3d7utility6Logger8LogInfo_IJRKdEEEvPKciS6_S6_DpOT_(ptr noundef nonnull @.str, i32 noundef 18, ptr noundef nonnull @__PRETTY_FUNCTION__._Z25PrintVoxelGridInformationRKN6open3d8geometry9VoxelGridE, ptr noundef nonnull @.str.8, ptr noundef nonnull align 8 dereferenceable(8) %8)
  ret void
}